; Function Attrs: mustprogress uwtable
define internal void @"_ZN4LuauL8fnVisitVIRZNS_lsERSoRKNS_7VariantIJNS_12TypeMismatchENS_13UnknownSymbolENS_15UnknownPropertyENS_9NotATableENS_17CannotExtendTableENS_24OnlyTablesCanHaveMethodsENS_23DuplicateTypeDefinitionENS_13CountMismatchENS_23FunctionDoesNotTakeSelfENS_20FunctionRequiresSelfENS_17OccursCheckFailedENS_14UnknownRequireENS_30IncorrectGenericParameterCountENS_11SyntaxErrorENS_14CodeTooComplexENS_21UnificationTooComplexENS_27UnknownPropButFoundLikePropENS_12GenericErrorENS_13InternalErrorENS_21CannotCallNonFunctionENS_16ExtraInformationENS_17DeprecatedApiUsedENS_25ModuleHasCyclicDependencyENS_14IllegalRequireENS_29FunctionExitsWithoutReturningENS_25DuplicateGenericParameterENS_19CannotAssignToNeverENS_26CannotInferBinaryOperationENS_17MissingPropertiesENS_27SwappedGenericTypeParameterENS_19OptionalValueAccessENS_20MissingUnionPropertyENS_17TypesAreUnrelatedENS_23NormalizationTooComplexENS_16TypePackMismatchENS_36DynamicPropertyLookupOnClassesUnsafeENS_21UninhabitedTypeFamilyENS_25UninhabitedTypePackFamilyENS_17WhereClauseNeededENS_21PackWhereClauseNeededENS_24CheckedFunctionCallErrorENS_32NonStrictFunctionDefinitionErrorENS_23PropertyAccessViolationENS_28CheckedFunctionIncorrectArgsENS_25UnexpectedTypeInSubtypingENS_29UnexpectedTypePackInSubtypingENS_37ExplicitFunctionAnnotationRecommendedEEEEE3$_0KSO_EEvRT_PNSt11conditionalIXsr3stdE10is_const_vIT0_EEKvvE4typeE"(ptr nocapture noundef nonnull readonly align 8 dereferenceable(8) %0, ptr noundef %1) #3 {
  %.val = load ptr, ptr %0, align 8
  %3 = tail call noundef nonnull align 8 dereferenceable(8) ptr @_ZStlsISt11char_traitsIcEERSt13basic_ostreamIcT_ES5_PKc(ptr noundef nonnull align 8 dereferenceable(8) %.val, ptr noundef nonnull @.str.98)
  %4 = tail call noundef nonnull align 8 dereferenceable(8) ptr @_ZStlsIcSt11char_traitsIcESaIcEERSt13basic_ostreamIT_T0_ES7_RKNSt7__cxx1112basic_stringIS4_S5_T1_EE(ptr noundef nonnull align 8 dereferenceable(8) %3, ptr noundef nonnull align 8 dereferenceable(32) %1)
  %5 = tail call noundef nonnull align 8 dereferenceable(8) ptr @_ZStlsISt11char_traitsIcEERSt13basic_ostreamIcT_ES5_PKc(ptr noundef nonnull align 8 dereferenceable(8) %4, ptr noundef nonnull @.str.99)
  %6 = getelementptr inbounds i8, ptr %1, i64 32
  %7 = tail call noundef nonnull align 8 dereferenceable(8) ptr @_ZStlsIcSt11char_traitsIcESaIcEERSt13basic_ostreamIT_T0_ES7_RKNSt7__cxx1112basic_stringIS4_S5_T1_EE(ptr noundef nonnull align 8 dereferenceable(8) %5, ptr noundef nonnull align 8 dereferenceable(32) %6)
  %8 = tail call noundef nonnull align 8 dereferenceable(8) ptr @_ZStlsISt11char_traitsIcEERSt13basic_ostreamIcT_ES5_PKc(ptr noundef nonnull align 8 dereferenceable(8) %7, ptr noundef nonnull @.str.54)
  ret void
}